target datalayout = "e-m:e-p270:32:32-p271:32:32-p272:64:64-i64:64-i128:128-f80:128-n8:16:32:64-S128"
target triple = "x86_64-pc-linux-gnu"

@.str = private unnamed_addr constant [16 x i8] c"TPM2.0 Protocol\00", align 1
@.str.1 = private unnamed_addr constant [7 x i8] c"TPM2.0\00", align 1
@.str.2 = private unnamed_addr constant [4 x i8] c"tpm\00", align 1
@proto_tpm20 = internal global i32 0, align 4
@ett = internal global [7 x ptr] [ptr @ett_tpm, ptr @ett_tpm_header, ptr @ett_tpm_response_header, ptr @ett_tpm_handles, ptr @ett_tpm_auth, ptr @ett_tpm_params, ptr @ett_tpm_attrib], align 16
@tpm20_handle = internal global ptr null, align 8

; Function Attrs: null_pointer_is_valid sspstrong uwtable
define hidden void @proto_register_tpm20() #0 {
  %1 = alloca ptr, align 8
  %2 = call i32 @proto_register_protocol(ptr noundef @.str, ptr noundef @.str.1, ptr noundef @.str.2)
  store i32 %2, ptr @proto_tpm20, align 4
  %3 = load i32, ptr @proto_tpm20, align 4
  call void @proto_register_field_array(i32 noundef %3, ptr noundef @hf, i32 noundef 69)
  call void @proto_register_subtree_array(ptr noundef @ett, i32 noundef 7)
  call void @llvm.lifetime.start.p0(i64 8, ptr %1) #6
  %4 = load i32, ptr @proto_tpm20, align 4
  %5 = call ptr @expert_register_protocol(i32 noundef %4)
  store ptr %5, ptr %1, align 8
  %6 = load ptr, ptr %1, align 8
  call void @expert_register_field_array(ptr noundef %6, ptr noundef @ei, i32 noundef 3)
  call void @register_init_routine(ptr noundef @tpm_init)
  %7 = load i32, ptr @proto_tpm20, align 4
  %8 = call ptr @register_dissector(ptr noundef @.str.2, ptr noundef @dissect_tpm20, i32 noundef %7)
  store ptr %8, ptr @tpm20_handle, align 8
  call void @llvm.lifetime.end.p0(i64 8, ptr %1) #6
  ret void
}