; Function Attrs: null_pointer_is_valid sspstrong uwtable
define hidden void @proto_register_tpm20() local_unnamed_addr #0 {
  %1 = tail call i32 @proto_register_protocol(ptr noundef nonnull @.str, ptr noundef nonnull @.str.1, ptr noundef nonnull @.str.2)
  store i32 %1, ptr @proto_tpm20, align 4
  tail call void @proto_register_field_array(i32 noundef %1, ptr noundef nonnull @hf, i32 noundef 69)
  tail call void @proto_register_subtree_array(ptr noundef nonnull @ett, i32 noundef 7)
  %2 = load i32, ptr @proto_tpm20, align 4
  %3 = tail call ptr @expert_register_protocol(i32 noundef %2)
  tail call void @expert_register_field_array(ptr noundef %3, ptr noundef nonnull @ei, i32 noundef 3)
  tail call void @register_init_routine(ptr noundef nonnull @tpm_init)
  %4 = load i32, ptr @proto_tpm20, align 4
  %5 = tail call ptr @register_dissector(ptr noundef nonnull @.str.2, ptr noundef nonnull @dissect_tpm20, i32 noundef %4)
  store ptr %5, ptr @tpm20_handle, align 8
  ret void
}